target datalayout = "e-m:e-p270:32:32-p271:32:32-p272:64:64-i64:64-i128:128-f80:128-n8:16:32:64-S128"
target triple = "x86_64-pc-linux-gnu"

%"class.cv::Mat" = type { i32, i32, i32, i32, ptr, ptr, ptr, ptr, ptr, ptr, %"struct.cv::MatSize", %"struct.cv::MatStep" }
%"struct.cv::MatSize" = type { ptr }
%"struct.cv::MatStep" = type { ptr, [2 x i64] }
%"class.cv::ccm::Polyfit" = type { ptr, i32, %"class.cv::Mat" }
%class.anon = type { ptr }
%"class.cv::Range" = type { i32, i32 }
%class.anon.15 = type { ptr, ptr, ptr, ptr, ptr }

; Function Attrs: inlinehint mustprogress nounwind uwtable
define linkonce_odr hidden noundef nonnull align 8 dereferenceable(8) ptr @_ZN2cv3Mat2atIdEERT_ii(ptr noundef nonnull align 8 dereferenceable(96) %0, i32 noundef %1, i32 noundef %2) #3 comdat align 2 {
  %4 = alloca ptr, align 8
  %5 = alloca i32, align 4
  %6 = alloca i32, align 4
  store ptr %0, ptr %4, align 8, !tbaa !8
  store i32 %1, ptr %5, align 4, !tbaa !10
  store i32 %2, ptr %6, align 4, !tbaa !10
  %7 = load ptr, ptr %4, align 8
  %8 = getelementptr inbounds nuw %"class.cv::Mat", ptr %7, i32 0, i32 4
  %9 = load ptr, ptr %8, align 8, !tbaa !37
  %10 = getelementptr inbounds nuw %"class.cv::Mat", ptr %7, i32 0, i32 11
  %11 = getelementptr inbounds nuw %"struct.cv::MatStep", ptr %10, i32 0, i32 0
  %12 = load ptr, ptr %11, align 8, !tbaa !38
  %13 = getelementptr inbounds i64, ptr %12, i64 0
  %14 = load i64, ptr %13, align 8, !tbaa !39
  %15 = load i32, ptr %5, align 4, !tbaa !10
  %16 = sext i32 %15 to i64
  %17 = mul i64 %14, %16
  %18 = getelementptr inbounds nuw i8, ptr %9, i64 %17
  %19 = load i32, ptr %6, align 4, !tbaa !10
  %20 = sext i32 %19 to i64
  %21 = getelementptr inbounds double, ptr %18, i64 %20
  ret ptr %21
}

; Function Attrs: inlinehint mustprogress nounwind uwtable
define linkonce_odr noundef double @_ZSt3powIdiEN9__gnu_cxx11__promote_2IT_T0_NS0_9__promoteIS2_Xsr3std12__is_integerIS2_EE7__valueEE6__typeENS4_IS3_Xsr3std12__is_integerIS3_EE7__valueEE6__typeEE6__typeES2_S3_(double noundef %0, i32 noundef %1) #3 comdat {
  %3 = alloca double, align 8
  %4 = alloca i32, align 4
  store double %0, ptr %3, align 8, !tbaa !26
  store i32 %1, ptr %4, align 4, !tbaa !10
  %5 = load double, ptr %3, align 8, !tbaa !26
  %6 = load i32, ptr %4, align 4, !tbaa !10
  %7 = sitofp i32 %6 to double
  %8 = call double @pow(double noundef %5, double noundef %7) #19, !tbaa !10
  ret double %8
}

; Function Attrs: mustprogress uwtable
define hidden noundef double @_ZN2cv3ccm7Polyfit6fromEWEd(ptr noundef nonnull align 8 dereferenceable(112) %0, double noundef %1) #0 align 2 {
  %3 = alloca ptr, align 8
  %4 = alloca double, align 8
  %5 = alloca double, align 8
  %6 = alloca i32, align 4
  store ptr %0, ptr %3, align 8, !tbaa !3
  store double %1, ptr %4, align 8, !tbaa !26
  %7 = load ptr, ptr %3, align 8
  call void @llvm.lifetime.start.p0(i64 8, ptr %5) #19
  store double 0.000000e+00, ptr %5, align 8, !tbaa !26
  call void @llvm.lifetime.start.p0(i64 4, ptr %6) #19
  store i32 0, ptr %6, align 4, !tbaa !10
  br label %8

8:                                                ; preds = %24, %2
  %9 = load i32, ptr %6, align 4, !tbaa !10
  %10 = getelementptr inbounds nuw %"class.cv::ccm::Polyfit", ptr %7, i32 0, i32 1
  %11 = load i32, ptr %10, align 8, !tbaa !14
  %12 = icmp sle i32 %9, %11
  br i1 %12, label %14, label %13

13:                                               ; preds = %8
  call void @llvm.lifetime.end.p0(i64 4, ptr %6) #19
  br label %27

14:                                               ; preds = %8
  %15 = load double, ptr %4, align 8, !tbaa !26
  %16 = load i32, ptr %6, align 4, !tbaa !10
  %17 = call noundef double @_ZSt3powIdiEN9__gnu_cxx11__promote_2IT_T0_NS0_9__promoteIS2_Xsr3std12__is_integerIS2_EE7__valueEE6__typeENS4_IS3_Xsr3std12__is_integerIS3_EE7__valueEE6__typeEE6__typeES2_S3_(double noundef %15, i32 noundef %16)
  %18 = getelementptr inbounds nuw %"class.cv::ccm::Polyfit", ptr %7, i32 0, i32 2
  %19 = load i32, ptr %6, align 4, !tbaa !10
  %20 = call noundef nonnull align 8 dereferenceable(8) ptr @_ZN2cv3Mat2atIdEERT_ii(ptr noundef nonnull align 8 dereferenceable(96) %18, i32 noundef %19, i32 noundef 0)
  %21 = load double, ptr %20, align 8, !tbaa !26
  %22 = load double, ptr %5, align 8, !tbaa !26
  %23 = call double @llvm.fmuladd.f64(double %17, double %21, double %22)
  store double %23, ptr %5, align 8, !tbaa !26
  br label %24

24:                                               ; preds = %14
  %25 = load i32, ptr %6, align 4, !tbaa !10
  %26 = add nsw i32 %25, 1
  store i32 %26, ptr %6, align 4, !tbaa !10
  br label %8, !llvm.loop !57

27:                                               ; preds = %13
  %28 = load double, ptr %5, align 8, !tbaa !26
  call void @llvm.lifetime.end.p0(i64 8, ptr %5) #19
  ret double %28
}

; Function Attrs: inlinehint mustprogress uwtable
define internal noundef double @"_ZZN2cv3ccm7PolyfitclERKNS_3MatEENK3$_0clEd"(ptr noundef nonnull align 8 dereferenceable(8) %0, double noundef %1) #5 align 2 {
  %3 = alloca ptr, align 8
  %4 = alloca double, align 8
  store ptr %0, ptr %3, align 8, !tbaa !47
  store double %1, ptr %4, align 8, !tbaa !26
  %5 = load ptr, ptr %3, align 8
  %6 = getelementptr inbounds nuw %class.anon, ptr %5, i32 0, i32 0
  %7 = load ptr, ptr %6, align 8, !tbaa !45
  %8 = load double, ptr %4, align 8, !tbaa !26
  %9 = call noundef double @_ZN2cv3ccm7Polyfit6fromEWEd(ptr noundef nonnull align 8 dereferenceable(112) %7, double noundef %8)
  ret double %9
}

; Function Attrs: inlinehint mustprogress nounwind uwtable
define linkonce_odr noundef nonnull align 4 dereferenceable(4) ptr @_ZSt3minIiERKT_S2_S2_(ptr noundef nonnull align 4 dereferenceable(4) %0, ptr noundef nonnull align 4 dereferenceable(4) %1) #3 comdat {
  %3 = alloca ptr, align 8
  %4 = alloca ptr, align 8
  %5 = alloca ptr, align 8
  store ptr %0, ptr %4, align 8, !tbaa !50
  store ptr %1, ptr %5, align 8, !tbaa !50
  %6 = load ptr, ptr %5, align 8, !tbaa !50
  %7 = load i32, ptr %6, align 4, !tbaa !10
  %8 = load ptr, ptr %4, align 8, !tbaa !50
  %9 = load i32, ptr %8, align 4, !tbaa !10
  %10 = icmp slt i32 %7, %9
  br i1 %10, label %11, label %13

11:                                               ; preds = %2
  %12 = load ptr, ptr %5, align 8, !tbaa !50
  store ptr %12, ptr %3, align 8
  br label %15

13:                                               ; preds = %2
  %14 = load ptr, ptr %4, align 8, !tbaa !50
  store ptr %14, ptr %3, align 8
  br label %15

15:                                               ; preds = %13, %11
  %16 = load ptr, ptr %3, align 8
  ret ptr %16
}

; Function Attrs: inlinehint mustprogress uwtable
define internal void @"_ZZN2cv3ccm11elementWiseIZNS0_7PolyfitclERKNS_3MatEE3$_0EES3_S5_OT_S3_ENKUlRKNS_5RangeEE_clESB_"(ptr noundef nonnull align 8 dereferenceable(40) %0, ptr noundef nonnull align 4 dereferenceable(8) %1) #5 align 2 {
  %3 = alloca ptr, align 8
  %4 = alloca ptr, align 8
  %5 = alloca i32, align 4
  %6 = alloca i32, align 4
  %7 = alloca i32, align 4
  %8 = alloca i32, align 4
  store ptr %0, ptr %3, align 8, !tbaa !47
  store ptr %1, ptr %4, align 8, !tbaa !263
  %9 = load ptr, ptr %3, align 8
  call void @llvm.lifetime.start.p0(i64 4, ptr %5) #19
  %10 = load ptr, ptr %4, align 8, !tbaa !263
  %11 = getelementptr inbounds nuw %"class.cv::Range", ptr %10, i32 0, i32 0
  %12 = load i32, ptr %11, align 4, !tbaa !267
  %13 = getelementptr inbounds nuw %class.anon.15, ptr %9, i32 0, i32 0
  %14 = load ptr, ptr %13, align 8, !tbaa !292
  %15 = load i32, ptr %14, align 4, !tbaa !10
  %16 = mul nsw i32 %12, %15
  store i32 %16, ptr %5, align 4, !tbaa !10
  call void @llvm.lifetime.start.p0(i64 4, ptr %6) #19
  call void @llvm.lifetime.start.p0(i64 4, ptr %7) #19
  %17 = load ptr, ptr %4, align 8, !tbaa !263
  %18 = getelementptr inbounds nuw %"class.cv::Range", ptr %17, i32 0, i32 1
  %19 = load i32, ptr %18, align 4, !tbaa !269
  %20 = getelementptr inbounds nuw %class.anon.15, ptr %9, i32 0, i32 0
  %21 = load ptr, ptr %20, align 8, !tbaa !292
  %22 = load i32, ptr %21, align 4, !tbaa !10
  %23 = mul nsw i32 %19, %22
  store i32 %23, ptr %7, align 4, !tbaa !10
  %24 = getelementptr inbounds nuw %class.anon.15, ptr %9, i32 0, i32 1
  %25 = load ptr, ptr %24, align 8, !tbaa !294
  %26 = call noundef nonnull align 4 dereferenceable(4) ptr @_ZSt3minIiERKT_S2_S2_(ptr noundef nonnull align 4 dereferenceable(4) %7, ptr noundef nonnull align 4 dereferenceable(4) %25)
  %27 = load i32, ptr %26, align 4, !tbaa !10
  call void @llvm.lifetime.end.p0(i64 4, ptr %7) #19
  store i32 %27, ptr %6, align 4, !tbaa !10
  call void @llvm.lifetime.start.p0(i64 4, ptr %8) #19
  %28 = load i32, ptr %5, align 4, !tbaa !10
  store i32 %28, ptr %8, align 4, !tbaa !10
  br label %29

29:                                               ; preds = %51, %2
  %30 = load i32, ptr %8, align 4, !tbaa !10
  %31 = load i32, ptr %6, align 4, !tbaa !10
  %32 = icmp slt i32 %30, %31
  br i1 %32, label %34, label %33

33:                                               ; preds = %29
  call void @llvm.lifetime.end.p0(i64 4, ptr %8) #19
  br label %54

34:                                               ; preds = %29
  %35 = getelementptr inbounds nuw %class.anon.15, ptr %9, i32 0, i32 3
  %36 = load ptr, ptr %35, align 8, !tbaa !295
  %37 = getelementptr inbounds nuw %class.anon.15, ptr %9, i32 0, i32 4
  %38 = load ptr, ptr %37, align 8, !tbaa !296
  %39 = load ptr, ptr %38, align 8, !tbaa !48
  %40 = load i32, ptr %8, align 4, !tbaa !10
  %41 = sext i32 %40 to i64
  %42 = getelementptr inbounds double, ptr %39, i64 %41
  %43 = load double, ptr %42, align 8, !tbaa !26
  %44 = call noundef double @"_ZZN2cv3ccm7PolyfitclERKNS_3MatEENK3$_0clEd"(ptr noundef nonnull align 8 dereferenceable(8) %36, double noundef %43)
  %45 = getelementptr inbounds nuw %class.anon.15, ptr %9, i32 0, i32 2
  %46 = load ptr, ptr %45, align 8, !tbaa !297
  %47 = load ptr, ptr %46, align 8, !tbaa !48
  %48 = load i32, ptr %8, align 4, !tbaa !10
  %49 = sext i32 %48 to i64
  %50 = getelementptr inbounds double, ptr %47, i64 %49
  store double %44, ptr %50, align 8, !tbaa !26
  br label %51

51:                                               ; preds = %34
  %52 = load i32, ptr %8, align 4, !tbaa !10
  %53 = add nsw i32 %52, 1
  store i32 %53, ptr %8, align 4, !tbaa !10
  br label %29, !llvm.loop !298

54:                                               ; preds = %33
  call void @llvm.lifetime.end.p0(i64 4, ptr %6) #19
  call void @llvm.lifetime.end.p0(i64 4, ptr %5) #19
  ret void
}

; Function Attrs: mustprogress nounwind uwtable
define linkonce_odr hidden noundef ptr @_ZNKSt9_Any_data9_M_accessEv(ptr noundef nonnull align 8 dereferenceable(16) %0) #7 comdat align 2 {
  %2 = alloca ptr, align 8
  store ptr %0, ptr %2, align 8, !tbaa !285
  %3 = load ptr, ptr %2, align 8
  %4 = getelementptr inbounds [16 x i8], ptr %3, i64 0, i64 0
  ret ptr %4
}

; Function Attrs: mustprogress uwtable
define internal void @"_ZSt13__invoke_implIvRZN2cv3ccm11elementWiseIZNS1_7PolyfitclERKNS0_3MatEE3$_0EES4_S6_OT_S4_EUlRKNS0_5RangeEE_JSC_EES8_St14__invoke_otherOT0_DpOT1_"(ptr noundef nonnull align 8 dereferenceable(40) %0, ptr noundef nonnull align 4 dereferenceable(8) %1) #0 {
  %3 = alloca ptr, align 8
  %4 = alloca ptr, align 8
  store ptr %0, ptr %3, align 8, !tbaa !47
  store ptr %1, ptr %4, align 8, !tbaa !263
  %5 = load ptr, ptr %3, align 8, !tbaa !47
  %6 = load ptr, ptr %4, align 8, !tbaa !263
  call void @"_ZZN2cv3ccm11elementWiseIZNS0_7PolyfitclERKNS_3MatEE3$_0EES3_S5_OT_S3_ENKUlRKNS_5RangeEE_clESB_"(ptr noundef nonnull align 8 dereferenceable(40) %5, ptr noundef nonnull align 4 dereferenceable(8) %6)
  ret void
}

; Function Attrs: mustprogress nounwind uwtable
define internal noundef nonnull align 8 dereferenceable(8) ptr @"_ZNKSt9_Any_data9_M_accessIPZN2cv3ccm11elementWiseIZNS2_7PolyfitclERKNS1_3MatEE3$_0EES5_S7_OT_S5_EUlRKNS1_5RangeEE_EERKS9_v"(ptr noundef nonnull align 8 dereferenceable(16) %0) #7 align 2 {
  %2 = alloca ptr, align 8
  store ptr %0, ptr %2, align 8, !tbaa !285
  %3 = load ptr, ptr %2, align 8
  %4 = call noundef ptr @_ZNKSt9_Any_data9_M_accessEv(ptr noundef nonnull align 8 dereferenceable(16) %3) #19
  ret ptr %4
}

; Function Attrs: mustprogress uwtable
define internal void @"_ZSt10__invoke_rIvRZN2cv3ccm11elementWiseIZNS1_7PolyfitclERKNS0_3MatEE3$_0EES4_S6_OT_S4_EUlRKNS0_5RangeEE_JSC_EENSt9enable_ifIXsr6__and_ISt7is_voidIS8_ESt14__is_invocableIT0_JDpT1_EEEE5valueES8_E4typeEOSJ_DpOSK_"(ptr noundef nonnull align 8 dereferenceable(40) %0, ptr noundef nonnull align 4 dereferenceable(8) %1) #0 {
  %3 = alloca ptr, align 8
  %4 = alloca ptr, align 8
  store ptr %0, ptr %3, align 8, !tbaa !47
  store ptr %1, ptr %4, align 8, !tbaa !263
  %5 = load ptr, ptr %3, align 8, !tbaa !47
  %6 = load ptr, ptr %4, align 8, !tbaa !263
  call void @"_ZSt13__invoke_implIvRZN2cv3ccm11elementWiseIZNS1_7PolyfitclERKNS0_3MatEE3$_0EES4_S6_OT_S4_EUlRKNS0_5RangeEE_JSC_EES8_St14__invoke_otherOT0_DpOT1_"(ptr noundef nonnull align 8 dereferenceable(40) %5, ptr noundef nonnull align 4 dereferenceable(8) %6)
  ret void
}

; Function Attrs: mustprogress nounwind uwtable
define internal noundef ptr @"_ZNSt14_Function_base13_Base_managerIZN2cv3ccm11elementWiseIZNS2_7PolyfitclERKNS1_3MatEE3$_0EES5_S7_OT_S5_EUlRKNS1_5RangeEE_E14_M_get_pointerERKSt9_Any_data"(ptr noundef nonnull align 8 dereferenceable(16) %0) #7 align 2 {
  %2 = alloca ptr, align 8
  store ptr %0, ptr %2, align 8, !tbaa !285
  %3 = load ptr, ptr %2, align 8, !tbaa !285
  %4 = call noundef nonnull align 8 dereferenceable(8) ptr @"_ZNKSt9_Any_data9_M_accessIPZN2cv3ccm11elementWiseIZNS2_7PolyfitclERKNS1_3MatEE3$_0EES5_S7_OT_S5_EUlRKNS1_5RangeEE_EERKS9_v"(ptr noundef nonnull align 8 dereferenceable(16) %3) #19
  %5 = load ptr, ptr %4, align 8, !tbaa !47
  ret ptr %5
}

; Function Attrs: mustprogress uwtable
define internal void @"_ZNSt17_Function_handlerIFvRKN2cv5RangeEEZNS0_3ccm11elementWiseIZNS5_7PolyfitclERKNS0_3MatEE3$_0EES8_SA_OT_S8_EUlS3_E_E9_M_invokeERKSt9_Any_dataS3_"(ptr noundef nonnull align 8 dereferenceable(16) %0, ptr noundef nonnull align 4 dereferenceable(8) %1) #0 align 2 {
  %3 = alloca ptr, align 8
  %4 = alloca ptr, align 8
  store ptr %0, ptr %3, align 8, !tbaa !285
  store ptr %1, ptr %4, align 8, !tbaa !263
  %5 = load ptr, ptr %3, align 8, !tbaa !285
  %6 = call noundef ptr @"_ZNSt14_Function_base13_Base_managerIZN2cv3ccm11elementWiseIZNS2_7PolyfitclERKNS1_3MatEE3$_0EES5_S7_OT_S5_EUlRKNS1_5RangeEE_E14_M_get_pointerERKSt9_Any_data"(ptr noundef nonnull align 8 dereferenceable(16) %5) #19
  %7 = load ptr, ptr %4, align 8, !tbaa !263
  call void @"_ZSt10__invoke_rIvRZN2cv3ccm11elementWiseIZNS1_7PolyfitclERKNS0_3MatEE3$_0EES4_S6_OT_S4_EUlRKNS0_5RangeEE_JSC_EENSt9enable_ifIXsr6__and_ISt7is_voidIS8_ESt14__is_invocableIT0_JDpT1_EEEE5valueES8_E4typeEOSJ_DpOSK_"(ptr noundef nonnull align 8 dereferenceable(40) %6, ptr noundef nonnull align 4 dereferenceable(8) %7)
  ret void
}