; Function Attrs: mustprogress nofree nounwind memory(readwrite, inaccessiblemem: write) uwtable
define internal void @"_ZNSt17_Function_handlerIFvRKN2cv5RangeEEZNS0_3ccm11elementWiseIZNS5_7PolyfitclERKNS0_3MatEE3$_0EES8_SA_OT_S8_EUlS3_E_E9_M_invokeERKSt9_Any_dataS3_"(ptr noundef nonnull readonly align 8 captures(none) dereferenceable(16) %0, ptr noundef nonnull readonly align 4 captures(none) dereferenceable(8) %1) #5 align 2 {
  %.val = load ptr, ptr %0, align 8, !tbaa !63
  %.val2 = load i32, ptr %1, align 4, !tbaa !56
  %3 = getelementptr inbounds nuw i8, ptr %1, i64 4
  %.val3 = load i32, ptr %3, align 4, !tbaa !58
  %4 = load ptr, ptr %.val, align 8, !tbaa !218
  %5 = load i32, ptr %4, align 4, !tbaa !35
  %6 = mul nsw i32 %5, %.val2
  %7 = mul nsw i32 %5, %.val3
  %8 = getelementptr inbounds nuw i8, ptr %.val, i64 8
  %9 = load ptr, ptr %8, align 8, !tbaa !220
  %10 = load i32, ptr %9, align 4, !tbaa !35
  %.sroa.speculated.i.i.i = tail call i32 @llvm.smin.i32(i32 %10, i32 %7)
  %11 = icmp slt i32 %6, %.sroa.speculated.i.i.i
  br i1 %11, label %.lr.ph.i.i.i, label %"_ZSt10__invoke_rIvRZN2cv3ccm11elementWiseIZNS1_7PolyfitclERKNS0_3MatEE3$_0EES4_S6_OT_S4_EUlRKNS0_5RangeEE_JSC_EENSt9enable_ifIXsr6__and_ISt7is_voidIS8_ESt14__is_invocableIT0_JDpT1_EEEE5valueES8_E4typeEOSJ_DpOSK_.exit"

.lr.ph.i.i.i:                                     ; preds = %2
  %12 = getelementptr inbounds nuw i8, ptr %.val, i64 24
  %13 = load ptr, ptr %12, align 8, !tbaa !221
  %14 = getelementptr inbounds nuw i8, ptr %.val, i64 32
  %15 = load ptr, ptr %14, align 8, !tbaa !222
  %16 = load ptr, ptr %15, align 8, !tbaa !54
  %.val.i.i.i = load ptr, ptr %13, align 8, !tbaa !48
  %17 = getelementptr inbounds nuw i8, ptr %.val.i.i.i, i64 8
  %18 = getelementptr inbounds nuw i8, ptr %.val.i.i.i, i64 32
  %19 = getelementptr inbounds nuw i8, ptr %.val.i.i.i, i64 88
  %20 = getelementptr inbounds nuw i8, ptr %.val, i64 16
  %21 = load ptr, ptr %20, align 8, !tbaa !223
  %22 = load ptr, ptr %21, align 8, !tbaa !54
  %23 = load i32, ptr %17, align 8, !tbaa !6
  %24 = icmp slt i32 %23, 0
  %25 = sext i32 %6 to i64
  br i1 %24, label %"_ZZN2cv3ccm7PolyfitclERKNS_3MatEENK3$_0clEd.exit.us.preheader.i.i.i", label %.lr.ph.split.preheader.i.i.i

.lr.ph.split.preheader.i.i.i:                     ; preds = %.lr.ph.i.i.i
  %wide.trip.count.i.i.i = sext i32 %.sroa.speculated.i.i.i to i64
  br label %.lr.ph.split.i.i.i

"_ZZN2cv3ccm7PolyfitclERKNS_3MatEENK3$_0clEd.exit.us.preheader.i.i.i": ; preds = %.lr.ph.i.i.i
  %26 = shl nsw i64 %25, 3
  %scevgep.i.i.i = getelementptr i8, ptr %22, i64 %26
  %27 = xor i32 %6, -1
  %28 = add i32 %.sroa.speculated.i.i.i, %27
  %29 = zext i32 %28 to i64
  %30 = shl nuw nsw i64 %29, 3
  %31 = add nuw nsw i64 %30, 8
  tail call void @llvm.memset.p0.i64(ptr noundef nonnull align 8 dereferenceable(1) %scevgep.i.i.i, i8 0, i64 %31, i1 false), !tbaa !37
  br label %"_ZSt10__invoke_rIvRZN2cv3ccm11elementWiseIZNS1_7PolyfitclERKNS0_3MatEE3$_0EES4_S6_OT_S4_EUlRKNS0_5RangeEE_JSC_EENSt9enable_ifIXsr6__and_ISt7is_voidIS8_ESt14__is_invocableIT0_JDpT1_EEEE5valueES8_E4typeEOSJ_DpOSK_.exit"

.lr.ph.split.i.i.i:                               ; preds = %"_ZZN2cv3ccm7PolyfitclERKNS_3MatEENK3$_0clEd.exit.i.i.i", %.lr.ph.split.preheader.i.i.i
  %32 = phi i32 [ %23, %.lr.ph.split.preheader.i.i.i ], [ %48, %"_ZZN2cv3ccm7PolyfitclERKNS_3MatEENK3$_0clEd.exit.i.i.i" ]
  %indvars.iv.i.i.i = phi i64 [ %25, %.lr.ph.split.preheader.i.i.i ], [ %indvars.iv.next.i.i.i, %"_ZZN2cv3ccm7PolyfitclERKNS_3MatEENK3$_0clEd.exit.i.i.i" ]
  %33 = getelementptr inbounds double, ptr %16, i64 %indvars.iv.i.i.i
  %34 = load double, ptr %33, align 8, !tbaa !37
  %.not8.i.i.i.i.i = icmp slt i32 %32, 0
  br i1 %.not8.i.i.i.i.i, label %"_ZZN2cv3ccm7PolyfitclERKNS_3MatEENK3$_0clEd.exit.i.i.i", label %.lr.ph.i.i.i.i.i

.lr.ph.i.i.i.i.i:                                 ; preds = %.lr.ph.split.i.i.i
  %35 = load ptr, ptr %18, align 8, !tbaa !36
  %36 = load ptr, ptr %19, align 8, !tbaa !41
  %37 = load i64, ptr %36, align 8, !tbaa !32
  br label %38

38:                                               ; preds = %38, %.lr.ph.i.i.i.i.i
  %indvars.iv.i.i.i.i.i = phi i64 [ 0, %.lr.ph.i.i.i.i.i ], [ %indvars.iv.next.i.i.i.i.i, %38 ]
  %.079.i.i.i.i.i = phi double [ 0.000000e+00, %.lr.ph.i.i.i.i.i ], [ %45, %38 ]
  %39 = trunc nuw nsw i64 %indvars.iv.i.i.i.i.i to i32
  %40 = uitofp nneg i32 %39 to double
  %41 = tail call noundef double @pow(double noundef %34, double noundef %40) #22, !tbaa !35
  %42 = mul i64 %indvars.iv.i.i.i.i.i, %37
  %43 = getelementptr inbounds nuw i8, ptr %35, i64 %42
  %44 = load double, ptr %43, align 8, !tbaa !37
  %45 = tail call double @llvm.fmuladd.f64(double %41, double %44, double %.079.i.i.i.i.i)
  %indvars.iv.next.i.i.i.i.i = add nuw nsw i64 %indvars.iv.i.i.i.i.i, 1
  %46 = load i32, ptr %17, align 8, !tbaa !6
  %47 = sext i32 %46 to i64
  %.not.not.i.i.i.i.i = icmp slt i64 %indvars.iv.i.i.i.i.i, %47
  br i1 %.not.not.i.i.i.i.i, label %38, label %"_ZZN2cv3ccm7PolyfitclERKNS_3MatEENK3$_0clEd.exit.i.i.i", !llvm.loop !82

"_ZZN2cv3ccm7PolyfitclERKNS_3MatEENK3$_0clEd.exit.i.i.i": ; preds = %38, %.lr.ph.split.i.i.i
  %48 = phi i32 [ %32, %.lr.ph.split.i.i.i ], [ %46, %38 ]
  %.07.lcssa.i.i.i.i.i = phi double [ 0.000000e+00, %.lr.ph.split.i.i.i ], [ %45, %38 ]
  %49 = getelementptr inbounds double, ptr %22, i64 %indvars.iv.i.i.i
  store double %.07.lcssa.i.i.i.i.i, ptr %49, align 8, !tbaa !37
  %indvars.iv.next.i.i.i = add nsw i64 %indvars.iv.i.i.i, 1
  %exitcond.not.i.i.i = icmp eq i64 %indvars.iv.next.i.i.i, %wide.trip.count.i.i.i
  br i1 %exitcond.not.i.i.i, label %"_ZSt10__invoke_rIvRZN2cv3ccm11elementWiseIZNS1_7PolyfitclERKNS0_3MatEE3$_0EES4_S6_OT_S4_EUlRKNS0_5RangeEE_JSC_EENSt9enable_ifIXsr6__and_ISt7is_voidIS8_ESt14__is_invocableIT0_JDpT1_EEEE5valueES8_E4typeEOSJ_DpOSK_.exit", label %.lr.ph.split.i.i.i, !llvm.loop !224

"_ZSt10__invoke_rIvRZN2cv3ccm11elementWiseIZNS1_7PolyfitclERKNS0_3MatEE3$_0EES4_S6_OT_S4_EUlRKNS0_5RangeEE_JSC_EENSt9enable_ifIXsr6__and_ISt7is_voidIS8_ESt14__is_invocableIT0_JDpT1_EEEE5valueES8_E4typeEOSJ_DpOSK_.exit": ; preds = %"_ZZN2cv3ccm7PolyfitclERKNS_3MatEENK3$_0clEd.exit.i.i.i", %2, %"_ZZN2cv3ccm7PolyfitclERKNS_3MatEENK3$_0clEd.exit.us.preheader.i.i.i"
  ret void
}